target datalayout = "e-m:e-p270:32:32-p271:32:32-p272:64:64-i64:64-i128:128-f80:128-n8:16:32:64-S128"
target triple = "x86_64-pc-linux-gnu"

; Function Attrs: nounwind uwtable
define internal i32 @pix_abs8_y2_c(ptr noundef %0, ptr noundef %1, ptr noundef %2, i64 noundef %3, i32 noundef %4) #2 {
  %6 = alloca ptr, align 8
  %7 = alloca ptr, align 8
  %8 = alloca ptr, align 8
  %9 = alloca i64, align 8
  %10 = alloca i32, align 4
  %11 = alloca i32, align 4
  %12 = alloca i32, align 4
  %13 = alloca ptr, align 8
  store ptr %0, ptr %6, align 8, !tbaa !22
  store ptr %1, ptr %7, align 8, !tbaa !24
  store ptr %2, ptr %8, align 8, !tbaa !24
  store i64 %3, ptr %9, align 8, !tbaa !26
  store i32 %4, ptr %10, align 4, !tbaa !11
  call void @llvm.lifetime.start.p0(i64 4, ptr %11) #9
  store i32 0, ptr %11, align 4, !tbaa !11
  call void @llvm.lifetime.start.p0(i64 4, ptr %12) #9
  call void @llvm.lifetime.start.p0(i64 8, ptr %13) #9
  %14 = load ptr, ptr %8, align 8, !tbaa !24
  %15 = load i64, ptr %9, align 8, !tbaa !26
  %16 = getelementptr inbounds i8, ptr %14, i64 %15
  store ptr %16, ptr %13, align 8, !tbaa !24
  store i32 0, ptr %12, align 4, !tbaa !11
  br label %17

17:                                               ; preds = %183, %5
  %18 = load i32, ptr %12, align 4, !tbaa !11
  %19 = load i32, ptr %10, align 4, !tbaa !11
  %20 = icmp slt i32 %18, %19
  br i1 %20, label %21, label %186

21:                                               ; preds = %17
  %22 = load ptr, ptr %7, align 8, !tbaa !24
  %23 = getelementptr inbounds i8, ptr %22, i64 0
  %24 = load i8, ptr %23, align 1, !tbaa !36
  %25 = zext i8 %24 to i32
  %26 = load ptr, ptr %8, align 8, !tbaa !24
  %27 = getelementptr inbounds i8, ptr %26, i64 0
  %28 = load i8, ptr %27, align 1, !tbaa !36
  %29 = zext i8 %28 to i32
  %30 = load ptr, ptr %13, align 8, !tbaa !24
  %31 = getelementptr inbounds i8, ptr %30, i64 0
  %32 = load i8, ptr %31, align 1, !tbaa !36
  %33 = zext i8 %32 to i32
  %34 = add nsw i32 %29, %33
  %35 = add nsw i32 %34, 1
  %36 = ashr i32 %35, 1
  %37 = sub nsw i32 %25, %36
  %38 = call i32 @llvm.abs.i32(i32 %37, i1 true)
  %39 = load i32, ptr %11, align 4, !tbaa !11
  %40 = add nsw i32 %39, %38
  store i32 %40, ptr %11, align 4, !tbaa !11
  %41 = load ptr, ptr %7, align 8, !tbaa !24
  %42 = getelementptr inbounds i8, ptr %41, i64 1
  %43 = load i8, ptr %42, align 1, !tbaa !36
  %44 = zext i8 %43 to i32
  %45 = load ptr, ptr %8, align 8, !tbaa !24
  %46 = getelementptr inbounds i8, ptr %45, i64 1
  %47 = load i8, ptr %46, align 1, !tbaa !36
  %48 = zext i8 %47 to i32
  %49 = load ptr, ptr %13, align 8, !tbaa !24
  %50 = getelementptr inbounds i8, ptr %49, i64 1
  %51 = load i8, ptr %50, align 1, !tbaa !36
  %52 = zext i8 %51 to i32
  %53 = add nsw i32 %48, %52
  %54 = add nsw i32 %53, 1
  %55 = ashr i32 %54, 1
  %56 = sub nsw i32 %44, %55
  %57 = call i32 @llvm.abs.i32(i32 %56, i1 true)
  %58 = load i32, ptr %11, align 4, !tbaa !11
  %59 = add nsw i32 %58, %57
  store i32 %59, ptr %11, align 4, !tbaa !11
  %60 = load ptr, ptr %7, align 8, !tbaa !24
  %61 = getelementptr inbounds i8, ptr %60, i64 2
  %62 = load i8, ptr %61, align 1, !tbaa !36
  %63 = zext i8 %62 to i32
  %64 = load ptr, ptr %8, align 8, !tbaa !24
  %65 = getelementptr inbounds i8, ptr %64, i64 2
  %66 = load i8, ptr %65, align 1, !tbaa !36
  %67 = zext i8 %66 to i32
  %68 = load ptr, ptr %13, align 8, !tbaa !24
  %69 = getelementptr inbounds i8, ptr %68, i64 2
  %70 = load i8, ptr %69, align 1, !tbaa !36
  %71 = zext i8 %70 to i32
  %72 = add nsw i32 %67, %71
  %73 = add nsw i32 %72, 1
  %74 = ashr i32 %73, 1
  %75 = sub nsw i32 %63, %74
  %76 = call i32 @llvm.abs.i32(i32 %75, i1 true)
  %77 = load i32, ptr %11, align 4, !tbaa !11
  %78 = add nsw i32 %77, %76
  store i32 %78, ptr %11, align 4, !tbaa !11
  %79 = load ptr, ptr %7, align 8, !tbaa !24
  %80 = getelementptr inbounds i8, ptr %79, i64 3
  %81 = load i8, ptr %80, align 1, !tbaa !36
  %82 = zext i8 %81 to i32
  %83 = load ptr, ptr %8, align 8, !tbaa !24
  %84 = getelementptr inbounds i8, ptr %83, i64 3
  %85 = load i8, ptr %84, align 1, !tbaa !36
  %86 = zext i8 %85 to i32
  %87 = load ptr, ptr %13, align 8, !tbaa !24
  %88 = getelementptr inbounds i8, ptr %87, i64 3
  %89 = load i8, ptr %88, align 1, !tbaa !36
  %90 = zext i8 %89 to i32
  %91 = add nsw i32 %86, %90
  %92 = add nsw i32 %91, 1
  %93 = ashr i32 %92, 1
  %94 = sub nsw i32 %82, %93
  %95 = call i32 @llvm.abs.i32(i32 %94, i1 true)
  %96 = load i32, ptr %11, align 4, !tbaa !11
  %97 = add nsw i32 %96, %95
  store i32 %97, ptr %11, align 4, !tbaa !11
  %98 = load ptr, ptr %7, align 8, !tbaa !24
  %99 = getelementptr inbounds i8, ptr %98, i64 4
  %100 = load i8, ptr %99, align 1, !tbaa !36
  %101 = zext i8 %100 to i32
  %102 = load ptr, ptr %8, align 8, !tbaa !24
  %103 = getelementptr inbounds i8, ptr %102, i64 4
  %104 = load i8, ptr %103, align 1, !tbaa !36
  %105 = zext i8 %104 to i32
  %106 = load ptr, ptr %13, align 8, !tbaa !24
  %107 = getelementptr inbounds i8, ptr %106, i64 4
  %108 = load i8, ptr %107, align 1, !tbaa !36
  %109 = zext i8 %108 to i32
  %110 = add nsw i32 %105, %109
  %111 = add nsw i32 %110, 1
  %112 = ashr i32 %111, 1
  %113 = sub nsw i32 %101, %112
  %114 = call i32 @llvm.abs.i32(i32 %113, i1 true)
  %115 = load i32, ptr %11, align 4, !tbaa !11
  %116 = add nsw i32 %115, %114
  store i32 %116, ptr %11, align 4, !tbaa !11
  %117 = load ptr, ptr %7, align 8, !tbaa !24
  %118 = getelementptr inbounds i8, ptr %117, i64 5
  %119 = load i8, ptr %118, align 1, !tbaa !36
  %120 = zext i8 %119 to i32
  %121 = load ptr, ptr %8, align 8, !tbaa !24
  %122 = getelementptr inbounds i8, ptr %121, i64 5
  %123 = load i8, ptr %122, align 1, !tbaa !36
  %124 = zext i8 %123 to i32
  %125 = load ptr, ptr %13, align 8, !tbaa !24
  %126 = getelementptr inbounds i8, ptr %125, i64 5
  %127 = load i8, ptr %126, align 1, !tbaa !36
  %128 = zext i8 %127 to i32
  %129 = add nsw i32 %124, %128
  %130 = add nsw i32 %129, 1
  %131 = ashr i32 %130, 1
  %132 = sub nsw i32 %120, %131
  %133 = call i32 @llvm.abs.i32(i32 %132, i1 true)
  %134 = load i32, ptr %11, align 4, !tbaa !11
  %135 = add nsw i32 %134, %133
  store i32 %135, ptr %11, align 4, !tbaa !11
  %136 = load ptr, ptr %7, align 8, !tbaa !24
  %137 = getelementptr inbounds i8, ptr %136, i64 6
  %138 = load i8, ptr %137, align 1, !tbaa !36
  %139 = zext i8 %138 to i32
  %140 = load ptr, ptr %8, align 8, !tbaa !24
  %141 = getelementptr inbounds i8, ptr %140, i64 6
  %142 = load i8, ptr %141, align 1, !tbaa !36
  %143 = zext i8 %142 to i32
  %144 = load ptr, ptr %13, align 8, !tbaa !24
  %145 = getelementptr inbounds i8, ptr %144, i64 6
  %146 = load i8, ptr %145, align 1, !tbaa !36
  %147 = zext i8 %146 to i32
  %148 = add nsw i32 %143, %147
  %149 = add nsw i32 %148, 1
  %150 = ashr i32 %149, 1
  %151 = sub nsw i32 %139, %150
  %152 = call i32 @llvm.abs.i32(i32 %151, i1 true)
  %153 = load i32, ptr %11, align 4, !tbaa !11
  %154 = add nsw i32 %153, %152
  store i32 %154, ptr %11, align 4, !tbaa !11
  %155 = load ptr, ptr %7, align 8, !tbaa !24
  %156 = getelementptr inbounds i8, ptr %155, i64 7
  %157 = load i8, ptr %156, align 1, !tbaa !36
  %158 = zext i8 %157 to i32
  %159 = load ptr, ptr %8, align 8, !tbaa !24
  %160 = getelementptr inbounds i8, ptr %159, i64 7
  %161 = load i8, ptr %160, align 1, !tbaa !36
  %162 = zext i8 %161 to i32
  %163 = load ptr, ptr %13, align 8, !tbaa !24
  %164 = getelementptr inbounds i8, ptr %163, i64 7
  %165 = load i8, ptr %164, align 1, !tbaa !36
  %166 = zext i8 %165 to i32
  %167 = add nsw i32 %162, %166
  %168 = add nsw i32 %167, 1
  %169 = ashr i32 %168, 1
  %170 = sub nsw i32 %158, %169
  %171 = call i32 @llvm.abs.i32(i32 %170, i1 true)
  %172 = load i32, ptr %11, align 4, !tbaa !11
  %173 = add nsw i32 %172, %171
  store i32 %173, ptr %11, align 4, !tbaa !11
  %174 = load i64, ptr %9, align 8, !tbaa !26
  %175 = load ptr, ptr %7, align 8, !tbaa !24
  %176 = getelementptr inbounds i8, ptr %175, i64 %174
  store ptr %176, ptr %7, align 8, !tbaa !24
  %177 = load i64, ptr %9, align 8, !tbaa !26
  %178 = load ptr, ptr %8, align 8, !tbaa !24
  %179 = getelementptr inbounds i8, ptr %178, i64 %177
  store ptr %179, ptr %8, align 8, !tbaa !24
  %180 = load i64, ptr %9, align 8, !tbaa !26
  %181 = load ptr, ptr %13, align 8, !tbaa !24
  %182 = getelementptr inbounds i8, ptr %181, i64 %180
  store ptr %182, ptr %13, align 8, !tbaa !24
  br label %183

183:                                              ; preds = %21
  %184 = load i32, ptr %12, align 4, !tbaa !11
  %185 = add nsw i32 %184, 1
  store i32 %185, ptr %12, align 4, !tbaa !11
  br label %17, !llvm.loop !43

186:                                              ; preds = %17
  %187 = load i32, ptr %11, align 4, !tbaa !11
  call void @llvm.lifetime.end.p0(i64 8, ptr %13) #9
  call void @llvm.lifetime.end.p0(i64 4, ptr %12) #9
  call void @llvm.lifetime.end.p0(i64 4, ptr %11) #9
  ret i32 %187
}