; Function Attrs: nofree norecurse nosync nounwind memory(argmem: read) uwtable
define internal i32 @pix_abs8_y2_c(ptr readnone captures(none) %0, ptr noundef readonly captures(none) %1, ptr noundef readonly captures(none) %2, i64 noundef %3, i32 noundef %4) #5 {
  %6 = icmp sgt i32 %4, 0
  br i1 %6, label %.lr.ph.preheader, label %._crit_edge

.lr.ph.preheader:                                 ; preds = %5
  %.phi.trans.insert = getelementptr inbounds nuw i8, ptr %2, i64 2
  %.pre = load i8, ptr %.phi.trans.insert, align 1, !tbaa !20
  %.phi.trans.insert52 = getelementptr inbounds nuw i8, ptr %2, i64 3
  %.pre53 = load i8, ptr %.phi.trans.insert52, align 1, !tbaa !20
  %.phi.trans.insert54 = getelementptr inbounds nuw i8, ptr %2, i64 4
  %.pre55 = load i8, ptr %.phi.trans.insert54, align 1, !tbaa !20
  %.phi.trans.insert56 = getelementptr inbounds nuw i8, ptr %2, i64 5
  %.pre57 = load i8, ptr %.phi.trans.insert56, align 1, !tbaa !20
  %.phi.trans.insert58 = getelementptr inbounds nuw i8, ptr %2, i64 6
  %.pre59 = load i8, ptr %.phi.trans.insert58, align 1, !tbaa !20
  br label %.lr.ph

.lr.ph:                                           ; preds = %.lr.ph.preheader, %.lr.ph
  %7 = phi i8 [ %96, %.lr.ph ], [ %.pre59, %.lr.ph.preheader ]
  %8 = phi i8 [ %83, %.lr.ph ], [ %.pre57, %.lr.ph.preheader ]
  %9 = phi i8 [ %70, %.lr.ph ], [ %.pre55, %.lr.ph.preheader ]
  %10 = phi i8 [ %57, %.lr.ph ], [ %.pre53, %.lr.ph.preheader ]
  %11 = phi i8 [ %44, %.lr.ph ], [ %.pre, %.lr.ph.preheader ]
  %.pn51 = phi ptr [ %.0, %.lr.ph ], [ %2, %.lr.ph.preheader ]
  %.04350 = phi i32 [ %120, %.lr.ph ], [ 0, %.lr.ph.preheader ]
  %.04449 = phi i32 [ %118, %.lr.ph ], [ 0, %.lr.ph.preheader ]
  %.04548 = phi ptr [ %119, %.lr.ph ], [ %1, %.lr.ph.preheader ]
  %.0 = getelementptr i8, ptr %.pn51, i64 %3
  %12 = load i8, ptr %.04548, align 1, !tbaa !20
  %13 = zext i8 %12 to i32
  %14 = load i8, ptr %.pn51, align 1, !tbaa !20
  %15 = zext i8 %14 to i32
  %16 = load i8, ptr %.0, align 1, !tbaa !20
  %17 = zext i8 %16 to i32
  %18 = add nuw nsw i32 %15, 1
  %19 = add nuw nsw i32 %18, %17
  %20 = lshr i32 %19, 1
  %21 = sub nsw i32 %13, %20
  %22 = tail call i32 @llvm.abs.i32(i32 %21, i1 true)
  %23 = add nsw i32 %22, %.04449
  %24 = getelementptr inbounds nuw i8, ptr %.04548, i64 1
  %25 = load i8, ptr %24, align 1, !tbaa !20
  %26 = zext i8 %25 to i32
  %27 = getelementptr inbounds nuw i8, ptr %.pn51, i64 1
  %28 = load i8, ptr %27, align 1, !tbaa !20
  %29 = zext i8 %28 to i32
  %30 = getelementptr inbounds nuw i8, ptr %.0, i64 1
  %31 = load i8, ptr %30, align 1, !tbaa !20
  %32 = zext i8 %31 to i32
  %33 = add nuw nsw i32 %29, 1
  %34 = add nuw nsw i32 %33, %32
  %35 = lshr i32 %34, 1
  %36 = sub nsw i32 %26, %35
  %37 = tail call i32 @llvm.abs.i32(i32 %36, i1 true)
  %38 = add nsw i32 %23, %37
  %39 = getelementptr inbounds nuw i8, ptr %.04548, i64 2
  %40 = load i8, ptr %39, align 1, !tbaa !20
  %41 = zext i8 %40 to i32
  %42 = zext i8 %11 to i32
  %43 = getelementptr inbounds nuw i8, ptr %.0, i64 2
  %44 = load i8, ptr %43, align 1, !tbaa !20
  %45 = zext i8 %44 to i32
  %46 = add nuw nsw i32 %42, 1
  %47 = add nuw nsw i32 %46, %45
  %48 = lshr i32 %47, 1
  %49 = sub nsw i32 %41, %48
  %50 = tail call i32 @llvm.abs.i32(i32 %49, i1 true)
  %51 = add nsw i32 %38, %50
  %52 = getelementptr inbounds nuw i8, ptr %.04548, i64 3
  %53 = load i8, ptr %52, align 1, !tbaa !20
  %54 = zext i8 %53 to i32
  %55 = zext i8 %10 to i32
  %56 = getelementptr inbounds nuw i8, ptr %.0, i64 3
  %57 = load i8, ptr %56, align 1, !tbaa !20
  %58 = zext i8 %57 to i32
  %59 = add nuw nsw i32 %55, 1
  %60 = add nuw nsw i32 %59, %58
  %61 = lshr i32 %60, 1
  %62 = sub nsw i32 %54, %61
  %63 = tail call i32 @llvm.abs.i32(i32 %62, i1 true)
  %64 = add nsw i32 %51, %63
  %65 = getelementptr inbounds nuw i8, ptr %.04548, i64 4
  %66 = load i8, ptr %65, align 1, !tbaa !20
  %67 = zext i8 %66 to i32
  %68 = zext i8 %9 to i32
  %69 = getelementptr inbounds nuw i8, ptr %.0, i64 4
  %70 = load i8, ptr %69, align 1, !tbaa !20
  %71 = zext i8 %70 to i32
  %72 = add nuw nsw i32 %68, 1
  %73 = add nuw nsw i32 %72, %71
  %74 = lshr i32 %73, 1
  %75 = sub nsw i32 %67, %74
  %76 = tail call i32 @llvm.abs.i32(i32 %75, i1 true)
  %77 = add nsw i32 %64, %76
  %78 = getelementptr inbounds nuw i8, ptr %.04548, i64 5
  %79 = load i8, ptr %78, align 1, !tbaa !20
  %80 = zext i8 %79 to i32
  %81 = zext i8 %8 to i32
  %82 = getelementptr inbounds nuw i8, ptr %.0, i64 5
  %83 = load i8, ptr %82, align 1, !tbaa !20
  %84 = zext i8 %83 to i32
  %85 = add nuw nsw i32 %81, 1
  %86 = add nuw nsw i32 %85, %84
  %87 = lshr i32 %86, 1
  %88 = sub nsw i32 %80, %87
  %89 = tail call i32 @llvm.abs.i32(i32 %88, i1 true)
  %90 = add nsw i32 %77, %89
  %91 = getelementptr inbounds nuw i8, ptr %.04548, i64 6
  %92 = load i8, ptr %91, align 1, !tbaa !20
  %93 = zext i8 %92 to i32
  %94 = zext i8 %7 to i32
  %95 = getelementptr inbounds nuw i8, ptr %.0, i64 6
  %96 = load i8, ptr %95, align 1, !tbaa !20
  %97 = zext i8 %96 to i32
  %98 = add nuw nsw i32 %94, 1
  %99 = add nuw nsw i32 %98, %97
  %100 = lshr i32 %99, 1
  %101 = sub nsw i32 %93, %100
  %102 = tail call i32 @llvm.abs.i32(i32 %101, i1 true)
  %103 = add nsw i32 %90, %102
  %104 = getelementptr inbounds nuw i8, ptr %.04548, i64 7
  %105 = load i8, ptr %104, align 1, !tbaa !20
  %106 = zext i8 %105 to i32
  %107 = getelementptr inbounds nuw i8, ptr %.pn51, i64 7
  %108 = load i8, ptr %107, align 1, !tbaa !20
  %109 = zext i8 %108 to i32
  %110 = getelementptr inbounds nuw i8, ptr %.0, i64 7
  %111 = load i8, ptr %110, align 1, !tbaa !20
  %112 = zext i8 %111 to i32
  %113 = add nuw nsw i32 %109, 1
  %114 = add nuw nsw i32 %113, %112
  %115 = lshr i32 %114, 1
  %116 = sub nsw i32 %106, %115
  %117 = tail call i32 @llvm.abs.i32(i32 %116, i1 true)
  %118 = add nsw i32 %103, %117
  %119 = getelementptr inbounds i8, ptr %.04548, i64 %3
  %120 = add nuw nsw i32 %.04350, 1
  %exitcond.not = icmp eq i32 %120, %4
  br i1 %exitcond.not, label %._crit_edge, label %.lr.ph, !llvm.loop !27

._crit_edge:                                      ; preds = %.lr.ph, %5
  %.044.lcssa = phi i32 [ 0, %5 ], [ %118, %.lr.ph ]
  ret i32 %.044.lcssa
}